; ModuleID = '30/2091.c'
source_filename = "30/2091.c"
target datalayout = "e-m:e-p270:32:32-p271:32:32-p272:64:64-i64:64-f80:128-n8:16:32:64-S128"
target triple = "x86_64-pc-linux-gnu"

@.str = private unnamed_addr constant [3 x i8] c"%d\00", align 1

; Function Attrs: noinline nounwind uwtable
define dso_local i32 @main() #0 {
  %1 = alloca i32, align 4
  %2 = alloca i32, align 4
  %3 = alloca i32, align 4
  %4 = alloca i32, align 4
  store i32 0, i32* %1, align 4
  store i32 0, i32* %3, align 4
  store i32 0, i32* %4, align 4
  %5 = call i32 (i8*, ...) @__isoc99_scanf(i8* getelementptr inbounds ([3 x i8], [3 x i8]* @.str, i64 0, i64 0), i32* %2)
  br label %6

6:                                                ; preds = %65, %64, %0
  %7 = load i32, i32* %3, align 4
  %8 = load i32, i32* %2, align 4
  %9 = icmp slt i32 %7, %8
  br i1 %9, label %10, label %71

10:                                               ; preds = %6
  %11 = load i32, i32* %3, align 4
  %12 = add nsw i32 %11, 1
  store i32 %12, i32* %3, align 4
  %13 = load i32, i32* %3, align 4
  %14 = srem i32 %13, 7
  %15 = icmp eq i32 %14, 0
  br i1 %15, label %64, label %16

16:                                               ; preds = %10
  %17 = load i32, i32* %3, align 4
  %18 = icmp eq i32 %17, 17
  br i1 %18, label %64, label %19

19:                                               ; preds = %16
  %20 = load i32, i32* %3, align 4
  %21 = icmp eq i32 %20, 27
  br i1 %21, label %64, label %22

22:                                               ; preds = %19
  %23 = load i32, i32* %3, align 4
  %24 = icmp eq i32 %23, 37
  br i1 %24, label %64, label %25

25:                                               ; preds = %22
  %26 = load i32, i32* %3, align 4
  %27 = icmp eq i32 %26, 47
  br i1 %27, label %64, label %28

28:                                               ; preds = %25
  %29 = load i32, i32* %3, align 4
  %30 = icmp eq i32 %29, 57
  br i1 %30, label %64, label %31

31:                                               ; preds = %28
  %32 = load i32, i32* %3, align 4
  %33 = icmp eq i32 %32, 67
  br i1 %33, label %64, label %34

34:                                               ; preds = %31
  %35 = load i32, i32* %3, align 4
  %36 = icmp eq i32 %35, 87
  br i1 %36, label %64, label %37

37:                                               ; preds = %34
  %38 = load i32, i32* %3, align 4
  %39 = icmp eq i32 %38, 97
  br i1 %39, label %64, label %40

40:                                               ; preds = %37
  %41 = load i32, i32* %3, align 4
  %42 = icmp eq i32 %41, 71
  br i1 %42, label %64, label %43

43:                                               ; preds = %40
  %44 = load i32, i32* %3, align 4
  %45 = icmp eq i32 %44, 72
  br i1 %45, label %64, label %46

46:                                               ; preds = %43
  %47 = load i32, i32* %3, align 4
  %48 = icmp eq i32 %47, 73
  br i1 %48, label %64, label %49

49:                                               ; preds = %46
  %50 = load i32, i32* %3, align 4
  %51 = icmp eq i32 %50, 74
  br i1 %51, label %64, label %52

52:                                               ; preds = %49
  %53 = load i32, i32* %3, align 4
  %54 = icmp eq i32 %53, 75
  br i1 %54, label %64, label %55

55:                                               ; preds = %52
  %56 = load i32, i32* %3, align 4
  %57 = icmp eq i32 %56, 76
  br i1 %57, label %64, label %58

58:                                               ; preds = %55
  %59 = load i32, i32* %3, align 4
  %60 = icmp eq i32 %59, 78
  br i1 %60, label %64, label %61

61:                                               ; preds = %58
  %62 = load i32, i32* %3, align 4
  %63 = icmp eq i32 %62, 79
  br i1 %63, label %64, label %65

64:                                               ; preds = %61, %58, %55, %52, %49, %46, %43, %40, %37, %34, %31, %28, %25, %22, %19, %16, %10
  br label %6

65:                                               ; preds = %61
  %66 = load i32, i32* %4, align 4
  %67 = load i32, i32* %3, align 4
  %68 = load i32, i32* %3, align 4
  %69 = mul nsw i32 %67, %68
  %70 = add nsw i32 %66, %69
  store i32 %70, i32* %4, align 4
  br label %6

71:                                               ; preds = %6
  %72 = load i32, i32* %4, align 4
  %73 = call i32 (i8*, ...) @printf(i8* getelementptr inbounds ([3 x i8], [3 x i8]* @.str, i64 0, i64 0), i32 %72)
  ret i32 0
}

declare dso_local i32 @__isoc99_scanf(i8*, ...) #1

declare dso_local i32 @printf(i8*, ...) #1


!llvm.module.flags = !{!0}
!llvm.ident = !{!1}

!0 = !{i32 1, !"wchar_size", i32 4}
!1 = !{!"clang version 10.0.0-4ubuntu1 "}
