; ModuleID = 'source-C-CXX/29/2091.c'
source_filename = "source-C-CXX/29/2091.c"
target datalayout = "e-m:e-p270:32:32-p271:32:32-p272:64:64-i64:64-f80:128-n8:16:32:64-S128"
target triple = "x86_64-pc-linux-gnu"

@.str = private unnamed_addr constant [3 x i8] c"%d\00", align 1

; Function Attrs: nofree nounwind sspstrong uwtable
define dso_local i32 @main() local_unnamed_addr #0 {
  %1 = alloca i32, align 4
  %2 = bitcast i32* %1 to i8*
  call void @llvm.lifetime.start.p0i8(i64 4, i8* nonnull %2) #4
  %3 = call i32 (i8*, ...) @__isoc99_scanf(i8* getelementptr inbounds ([3 x i8], [3 x i8]* @.str, i64 0, i64 0), i32* nonnull %1)
  %4 = load i32, i32* %1, align 4, !tbaa !5
  br label %5

5:                                                ; preds = %40, %0
  %6 = phi i32 [ %19, %40 ], [ 0, %0 ]
  %7 = phi i32 [ %42, %40 ], [ 0, %0 ]
  %8 = call i32 @llvm.smax.i32(i32 %6, i32 %4)
  br label %9

9:                                                ; preds = %5, %12
  %10 = phi i32 [ %19, %12 ], [ %6, %5 ]
  %11 = icmp eq i32 %10, %8
  br i1 %11, label %43, label %12

12:                                               ; preds = %9
  %13 = insertelement <2 x i32> poison, i32 %10, i32 0
  %14 = shufflevector <2 x i32> %13, <2 x i32> poison, <2 x i32> zeroinitializer
  %15 = and <2 x i32> %14, <i32 -2, i32 poison>
  %16 = add <2 x i32> %14, <i32 poison, i32 1>
  %17 = shufflevector <2 x i32> %15, <2 x i32> %16, <2 x i32> <i32 0, i32 3>
  %18 = shufflevector <2 x i32> %17, <2 x i32> poison, <8 x i32> <i32 0, i32 1, i32 1, i32 1, i32 1, i32 1, i32 1, i32 1>
  %19 = extractelement <2 x i32> %16, i32 1
  %20 = srem i32 %19, 7
  %21 = icmp eq i32 %20, 0
  %22 = icmp eq i32 %19, 17
  %23 = icmp eq <8 x i32> %18, <i32 70, i32 97, i32 87, i32 67, i32 57, i32 47, i32 37, i32 27>
  %24 = bitcast <8 x i1> %23 to i8
  %25 = icmp ne i8 %24, 0
  %26 = or i1 %25, %22
  %27 = or i1 %26, %21
  %28 = icmp eq i32 %19, 73
  %29 = select i1 %27, i1 true, i1 %28
  %30 = icmp eq i32 %19, 74
  %31 = select i1 %29, i1 true, i1 %30
  %32 = icmp eq i32 %19, 75
  %33 = select i1 %31, i1 true, i1 %32
  %34 = icmp eq i32 %19, 76
  %35 = select i1 %33, i1 true, i1 %34
  %36 = icmp eq i32 %19, 78
  %37 = select i1 %35, i1 true, i1 %36
  %38 = icmp eq i32 %19, 79
  %39 = select i1 %37, i1 true, i1 %38
  br i1 %39, label %9, label %40, !llvm.loop !9

40:                                               ; preds = %12
  %41 = mul nsw i32 %19, %19
  %42 = add nuw nsw i32 %41, %7
  br label %5, !llvm.loop !9

43:                                               ; preds = %9
  %44 = call i32 (i8*, ...) @printf(i8* nonnull dereferenceable(1) getelementptr inbounds ([3 x i8], [3 x i8]* @.str, i64 0, i64 0), i32 %7)
  call void @llvm.lifetime.end.p0i8(i64 4, i8* nonnull %2) #4
  ret i32 0
}

; Function Attrs: argmemonly mustprogress nofree nosync nounwind willreturn
declare void @llvm.lifetime.start.p0i8(i64 immarg, i8* nocapture) #1

; Function Attrs: nofree nounwind
declare noundef i32 @__isoc99_scanf(i8* nocapture noundef readonly, ...) local_unnamed_addr #2

; Function Attrs: nofree nounwind
declare noundef i32 @printf(i8* nocapture noundef readonly, ...) local_unnamed_addr #2

; Function Attrs: argmemonly mustprogress nofree nosync nounwind willreturn
declare void @llvm.lifetime.end.p0i8(i64 immarg, i8* nocapture) #1

; Function Attrs: nofree nosync nounwind readnone speculatable willreturn
declare i32 @llvm.smax.i32(i32, i32) #3


!llvm.module.flags = !{!0, !1, !2, !3}
!llvm.ident = !{!4}

!0 = !{i32 1, !"wchar_size", i32 4}
!1 = !{i32 7, !"PIC Level", i32 2}
!2 = !{i32 7, !"PIE Level", i32 2}
!3 = !{i32 7, !"uwtable", i32 1}
!4 = !{!"clang version 13.0.0"}
!5 = !{!6, !6, i64 0}
!6 = !{!"int", !7, i64 0}
!7 = !{!"omnipotent char", !8, i64 0}
!8 = !{!"Simple C/C++ TBAA"}
!9 = distinct !{!9, !10}
!10 = !{!"llvm.loop.mustprogress"}
